; Function Attrs: mustprogress uwtable
define dso_local void @_ZNK3net19SourceAddressTokens24SerializeWithCachedSizesEPN6google8protobuf2io17CodedOutputStreamE(ptr nocapture noundef nonnull readonly align 8 dereferenceable(56) %this, ptr noundef %output) unnamed_addr #1 align 2 personality ptr @__gxx_personality_v0 {
entry:
  %current_size_.i.i.i = getelementptr inbounds i8, ptr %this, i64 40
  %0 = load i32, ptr %current_size_.i.i.i, align 8
  %cmp5.not = icmp eq i32 %0, 0
  br i1 %cmp5.not, label %for.end, label %for.body.lr.ph

for.body.lr.ph:                                   ; preds = %entry
  %rep_.i.i.i = getelementptr inbounds i8, ptr %this, i64 48
  br label %for.body

for.body:                                         ; preds = %for.body.lr.ph, %for.body
  %i.06 = phi i32 [ 0, %for.body.lr.ph ], [ %inc, %for.body ]
  %1 = load ptr, ptr %rep_.i.i.i, align 8
  %elements.i.i.i = getelementptr inbounds i8, ptr %1, i64 8
  %idxprom.i.i.i = sext i32 %i.06 to i64
  %arrayidx.i.i.i = getelementptr inbounds [1 x ptr], ptr %elements.i.i.i, i64 0, i64 %idxprom.i.i.i
  %2 = load ptr, ptr %arrayidx.i.i.i, align 8
  tail call void @_ZN6google8protobuf8internal14WireFormatLite12WriteMessageEiRKNS0_11MessageLiteEPNS0_2io17CodedOutputStreamE(i32 noundef 4, ptr noundef nonnull align 8 dereferenceable(8) %2, ptr noundef %output)
  %inc = add nuw i32 %i.06, 1
  %exitcond.not = icmp eq i32 %inc, %0
  br i1 %exitcond.not, label %for.end, label %for.body, !llvm.loop !10

for.end:                                          ; preds = %for.body, %entry
  %_unknown_fields_.i = getelementptr inbounds i8, ptr %this, i64 8
  %3 = load ptr, ptr %_unknown_fields_.i, align 8
  %call4 = tail call noundef ptr @_ZNKSt7__cxx1112basic_stringIcSt11char_traitsIcESaIcEE4dataEv(ptr noundef nonnull align 8 dereferenceable(32) %3) #14
  %4 = load ptr, ptr %_unknown_fields_.i, align 8
  %call6 = tail call noundef i64 @_ZNKSt7__cxx1112basic_stringIcSt11char_traitsIcESaIcEE4sizeEv(ptr noundef nonnull align 8 dereferenceable(32) %4) #14
  %conv = trunc i64 %call6 to i32
  tail call void @_ZN6google8protobuf2io17CodedOutputStream8WriteRawEPKvi(ptr noundef nonnull align 8 dereferenceable(26) %output, ptr noundef %call4, i32 noundef %conv)
  ret void
}